target datalayout = "e-m:e-p270:32:32-p271:32:32-p272:64:64-i64:64-i128:128-f80:128-n8:16:32:64-S128"
target triple = "x86_64-pc-linux-gnu"

%"struct.cv::softdouble" = type { i64 }
%union.anon = type { i32 }

; Function Attrs: mustprogress nounwind uwtable
define internal void @_ZN2cvL10raiseFlagsEh(i8 noundef zeroext %0) #1 {
  %2 = alloca i8, align 1
  store i8 %0, ptr %2, align 1
  ret void
}

; Function Attrs: mustprogress nounwind uwtable
define internal noundef i64 @_ZN2cvL20softfloat_roundToI32Ebmhb(i1 noundef zeroext %0, i64 noundef %1, i8 noundef zeroext %2, i1 noundef zeroext %3) #1 {
  %5 = alloca i64, align 8
  %6 = alloca i8, align 1
  %7 = alloca i64, align 8
  %8 = alloca i8, align 1
  %9 = alloca i8, align 1
  %10 = alloca i8, align 1
  %11 = alloca i64, align 8
  %12 = alloca i64, align 8
  %13 = alloca i64, align 8
  %14 = alloca %union.anon, align 4
  %15 = alloca i64, align 8
  %16 = zext i1 %0 to i8
  store i8 %16, ptr %6, align 1
  store i64 %1, ptr %7, align 8
  store i8 %2, ptr %8, align 1
  %17 = zext i1 %3 to i8
  store i8 %17, ptr %9, align 1
  %18 = load i8, ptr %8, align 1
  %19 = zext i8 %18 to i32
  %20 = icmp eq i32 %19, 0
  %21 = zext i1 %20 to i8
  store i8 %21, ptr %10, align 1
  store i64 2048, ptr %11, align 8
  %22 = load i8, ptr %10, align 1
  %23 = trunc i8 %22 to i1
  br i1 %23, label %37, label %24

24:                                               ; preds = %4
  %25 = load i8, ptr %8, align 1
  %26 = zext i8 %25 to i32
  %27 = icmp ne i32 %26, 4
  br i1 %27, label %28, label %37

28:                                               ; preds = %24
  %29 = load i8, ptr %8, align 1
  %30 = zext i8 %29 to i32
  %31 = load i8, ptr %6, align 1
  %32 = trunc i8 %31 to i1
  %33 = select i1 %32, i32 2, i32 3
  %34 = icmp eq i32 %30, %33
  %35 = select i1 %34, i32 4095, i32 0
  %36 = sext i32 %35 to i64
  store i64 %36, ptr %11, align 8
  br label %37

37:                                               ; preds = %28, %24, %4
  %38 = load i64, ptr %7, align 8
  %39 = and i64 %38, 4095
  store i64 %39, ptr %12, align 8
  %40 = load i64, ptr %11, align 8
  %41 = load i64, ptr %7, align 8
  %42 = add i64 %41, %40
  store i64 %42, ptr %7, align 8
  %43 = load i64, ptr %7, align 8
  %44 = and i64 %43, -17592186044416
  %45 = icmp ne i64 %44, 0
  br i1 %45, label %46, label %47

46:                                               ; preds = %37
  br label %97

47:                                               ; preds = %37
  %48 = load i64, ptr %7, align 8
  %49 = lshr i64 %48, 12
  store i64 %49, ptr %13, align 8
  %50 = load i64, ptr %12, align 8
  %51 = xor i64 %50, 2048
  %52 = icmp ne i64 %51, 0
  %53 = xor i1 %52, true
  %54 = zext i1 %53 to i32
  %55 = load i8, ptr %10, align 1
  %56 = trunc i8 %55 to i1
  %57 = zext i1 %56 to i32
  %58 = and i32 %54, %57
  %59 = sext i32 %58 to i64
  %60 = xor i64 %59, -1
  %61 = load i64, ptr %13, align 8
  %62 = and i64 %61, %60
  store i64 %62, ptr %13, align 8
  %63 = load i8, ptr %6, align 1
  %64 = trunc i8 %63 to i1
  br i1 %64, label %65, label %69

65:                                               ; preds = %47
  %66 = load i64, ptr %13, align 8
  %67 = xor i64 %66, -1
  %68 = add i64 %67, 1
  br label %71

69:                                               ; preds = %47
  %70 = load i64, ptr %13, align 8
  br label %71

71:                                               ; preds = %69, %65
  %72 = phi i64 [ %68, %65 ], [ %70, %69 ]
  %73 = trunc i64 %72 to i32
  store i32 %73, ptr %14, align 4
  %74 = load i32, ptr %14, align 4
  %75 = sext i32 %74 to i64
  store i64 %75, ptr %15, align 8
  %76 = load i64, ptr %15, align 8
  %77 = icmp ne i64 %76, 0
  br i1 %77, label %78, label %88

78:                                               ; preds = %71
  %79 = load i64, ptr %15, align 8
  %80 = icmp slt i64 %79, 0
  %81 = zext i1 %80 to i32
  %82 = load i8, ptr %6, align 1
  %83 = trunc i8 %82 to i1
  %84 = zext i1 %83 to i32
  %85 = xor i32 %81, %84
  %86 = icmp ne i32 %85, 0
  br i1 %86, label %87, label %88

87:                                               ; preds = %78
  br label %97

88:                                               ; preds = %78, %71
  %89 = load i8, ptr %9, align 1
  %90 = trunc i8 %89 to i1
  br i1 %90, label %91, label %95

91:                                               ; preds = %88
  %92 = load i64, ptr %12, align 8
  %93 = icmp ne i64 %92, 0
  br i1 %93, label %94, label %95

94:                                               ; preds = %91
  call void @_ZN2cvL10raiseFlagsEh(i8 noundef zeroext 1)
  br label %95

95:                                               ; preds = %94, %91, %88
  %96 = load i64, ptr %15, align 8
  store i64 %96, ptr %5, align 8
  br label %102

97:                                               ; preds = %87, %46
  call void @_ZN2cvL10raiseFlagsEh(i8 noundef zeroext 16)
  %98 = load i8, ptr %6, align 1
  %99 = trunc i8 %98 to i1
  %100 = select i1 %99, i32 -2147483648, i32 2147483647
  %101 = sext i32 %100 to i64
  store i64 %101, ptr %5, align 8
  br label %102

102:                                              ; preds = %97, %95
  %103 = load i64, ptr %5, align 8
  ret i64 %103
}

; Function Attrs: mustprogress nounwind uwtable
define internal noundef i64 @_ZN2cvL25softfloat_shiftRightJam64Emm(i64 noundef %0, i64 noundef %1) #1 {
  %3 = alloca i64, align 8
  %4 = alloca i64, align 8
  store i64 %0, ptr %3, align 8
  store i64 %1, ptr %4, align 8
  %5 = load i64, ptr %4, align 8
  %6 = icmp ult i64 %5, 63
  br i1 %6, label %7, label %20

7:                                                ; preds = %2
  %8 = load i64, ptr %3, align 8
  %9 = load i64, ptr %4, align 8
  %10 = lshr i64 %8, %9
  %11 = load i64, ptr %3, align 8
  %12 = load i64, ptr %4, align 8
  %13 = xor i64 %12, -1
  %14 = add i64 %13, 1
  %15 = and i64 %14, 63
  %16 = shl i64 %11, %15
  %17 = icmp ne i64 %16, 0
  %18 = zext i1 %17 to i64
  %19 = or i64 %10, %18
  br label %24

20:                                               ; preds = %2
  %21 = load i64, ptr %3, align 8
  %22 = icmp ne i64 %21, 0
  %23 = zext i1 %22 to i64
  br label %24

24:                                               ; preds = %20, %7
  %25 = phi i64 [ %19, %7 ], [ %23, %20 ]
  ret i64 %25
}

; Function Attrs: mustprogress nounwind uwtable
define internal noundef i64 @_ZN2cvL10f64_to_i32ENS_10softdoubleEhb(ptr noundef %0, i8 noundef zeroext %1, i1 noundef zeroext %2) #1 {
  %4 = alloca ptr, align 8
  %5 = alloca i8, align 1
  %6 = alloca i8, align 1
  %7 = alloca i64, align 8
  %8 = alloca i8, align 1
  %9 = alloca i64, align 8
  %10 = alloca i64, align 8
  %11 = alloca i64, align 8
  store ptr %0, ptr %4, align 8
  store i8 %1, ptr %5, align 1
  %12 = zext i1 %2 to i8
  store i8 %12, ptr %6, align 1
  %13 = getelementptr inbounds %"struct.cv::softdouble", ptr %0, i32 0, i32 0
  %14 = load i64, ptr %13, align 8
  store i64 %14, ptr %7, align 8
  %15 = load i64, ptr %7, align 8
  %16 = lshr i64 %15, 63
  %17 = icmp ne i64 %16, 0
  %18 = zext i1 %17 to i8
  store i8 %18, ptr %8, align 1
  %19 = load i64, ptr %7, align 8
  %20 = lshr i64 %19, 52
  %21 = and i64 %20, 2047
  store i64 %21, ptr %9, align 8
  %22 = load i64, ptr %7, align 8
  %23 = and i64 %22, 4503599627370495
  store i64 %23, ptr %10, align 8
  %24 = load i64, ptr %9, align 8
  %25 = icmp eq i64 %24, 2047
  br i1 %25, label %26, label %30

26:                                               ; preds = %3
  %27 = load i64, ptr %10, align 8
  %28 = icmp ne i64 %27, 0
  br i1 %28, label %29, label %30

29:                                               ; preds = %26
  store i8 0, ptr %8, align 1
  br label %30

30:                                               ; preds = %29, %26, %3
  %31 = load i64, ptr %9, align 8
  %32 = icmp ne i64 %31, 0
  br i1 %32, label %33, label %36

33:                                               ; preds = %30
  %34 = load i64, ptr %10, align 8
  %35 = or i64 %34, 4503599627370496
  store i64 %35, ptr %10, align 8
  br label %36

36:                                               ; preds = %33, %30
  %37 = load i64, ptr %9, align 8
  %38 = sub nsw i64 1063, %37
  store i64 %38, ptr %11, align 8
  %39 = load i64, ptr %11, align 8
  %40 = icmp slt i64 0, %39
  br i1 %40, label %41, label %45

41:                                               ; preds = %36
  %42 = load i64, ptr %10, align 8
  %43 = load i64, ptr %11, align 8
  %44 = call noundef i64 @_ZN2cvL25softfloat_shiftRightJam64Emm(i64 noundef %42, i64 noundef %43)
  store i64 %44, ptr %10, align 8
  br label %45

45:                                               ; preds = %41, %36
  %46 = load i8, ptr %8, align 1
  %47 = trunc i8 %46 to i1
  %48 = load i64, ptr %10, align 8
  %49 = load i8, ptr %5, align 1
  %50 = load i8, ptr %6, align 1
  %51 = trunc i8 %50 to i1
  %52 = call noundef i64 @_ZN2cvL20softfloat_roundToI32Ebmhb(i1 noundef zeroext %47, i64 noundef %48, i8 noundef zeroext %49, i1 noundef zeroext %51)
  ret i64 %52
}

; Function Attrs: mustprogress nounwind uwtable
define linkonce_odr hidden void @_ZN2cv10softdoubleC2ERKS0_(ptr noundef nonnull align 8 dereferenceable(8) %0, ptr noundef nonnull align 8 dereferenceable(8) %1) unnamed_addr #1 comdat align 2 {
  %3 = alloca ptr, align 8
  %4 = alloca ptr, align 8
  store ptr %0, ptr %3, align 8
  store ptr %1, ptr %4, align 8
  %5 = load ptr, ptr %3, align 8
  %6 = load ptr, ptr %4, align 8
  %7 = getelementptr inbounds %"struct.cv::softdouble", ptr %6, i32 0, i32 0
  %8 = load i64, ptr %7, align 8
  %9 = getelementptr inbounds %"struct.cv::softdouble", ptr %5, i32 0, i32 0
  store i64 %8, ptr %9, align 8
  ret void
}

; Function Attrs: mustprogress uwtable
define noundef i32 @_Z7cvRoundRKN2cv10softdoubleE(ptr noundef nonnull align 8 dereferenceable(8) %0) #0 {
  %2 = alloca ptr, align 8
  %3 = alloca %"struct.cv::softdouble", align 8
  store ptr %0, ptr %2, align 8
  %4 = load ptr, ptr %2, align 8
  call void @_ZN2cv10softdoubleC2ERKS0_(ptr noundef nonnull align 8 dereferenceable(8) %3, ptr noundef nonnull align 8 dereferenceable(8) %4)
  %5 = call noundef i64 @_ZN2cvL10f64_to_i32ENS_10softdoubleEhb(ptr noundef %3, i8 noundef zeroext 0, i1 noundef zeroext false)
  %6 = trunc i64 %5 to i32
  ret i32 %6
}