; Function Attrs: mustprogress nofree norecurse nosync nounwind willreturn memory(argmem: read) uwtable
define noundef i32 @_Z7cvRoundRKN2cv10softdoubleE(ptr nocapture noundef nonnull readonly align 8 dereferenceable(8) %0) local_unnamed_addr #4 {
  %2 = load i64, ptr %0, align 8
  %3 = icmp slt i64 %2, 0
  %4 = lshr i64 %2, 52
  %5 = and i64 %4, 2047
  %6 = and i64 %2, 4503599627370495
  %7 = icmp ne i64 %5, 2047
  %8 = icmp eq i64 %6, 0
  %or.cond.not.i = or i1 %8, %7
  %spec.select.i = and i1 %3, %or.cond.not.i
  %.not.i = icmp eq i64 %5, 0
  %9 = or disjoint i64 %6, 4503599627370496
  %.016.i = select i1 %.not.i, i64 %6, i64 %9
  %10 = icmp ult i64 %5, 1063
  br i1 %10, label %11, label %_ZN2cvL25softfloat_shiftRightJam64Emm.exit.i

11:                                               ; preds = %1
  %12 = icmp ugt i64 %5, 1000
  br i1 %12, label %13, label %_ZN2cvL25softfloat_shiftRightJam64Emm.exit.i.thread

13:                                               ; preds = %11
  %.neg.i = add nuw nsw i64 %4, 25
  %14 = sub nuw nsw i64 1063, %5
  %15 = lshr i64 %9, %14
  %16 = and i64 %.neg.i, 63
  %17 = shl i64 %9, %16
  %18 = icmp ne i64 %17, 0
  %19 = zext i1 %18 to i64
  %20 = or i64 %15, %19
  br label %_ZN2cvL25softfloat_shiftRightJam64Emm.exit.i

_ZN2cvL25softfloat_shiftRightJam64Emm.exit.i.thread: ; preds = %11
  %21 = icmp ne i64 %.016.i, 0
  %22 = zext i1 %21 to i64
  br label %23

_ZN2cvL25softfloat_shiftRightJam64Emm.exit.i:     ; preds = %13, %1
  %.1.i = phi i64 [ %.016.i, %1 ], [ %20, %13 ]
  %.not.i.i = icmp ult i64 %.1.i, 17592186042368
  br i1 %.not.i.i, label %23, label %34

23:                                               ; preds = %_ZN2cvL25softfloat_shiftRightJam64Emm.exit.i.thread, %_ZN2cvL25softfloat_shiftRightJam64Emm.exit.i
  %.1.i3 = phi i64 [ %22, %_ZN2cvL25softfloat_shiftRightJam64Emm.exit.i.thread ], [ %.1.i, %_ZN2cvL25softfloat_shiftRightJam64Emm.exit.i ]
  %24 = add nuw nsw i64 %.1.i3, 2048
  %25 = and i64 %.1.i3, 4095
  %26 = lshr i64 %24, 12
  %.not31.i.i = icmp eq i64 %25, 2048
  %27 = zext i1 %.not31.i.i to i64
  %28 = xor i64 %27, -1
  %29 = and i64 %26, %28
  %30 = sub nsw i64 0, %29
  %31 = select i1 %spec.select.i, i64 %30, i64 %29
  %sext.i.i = shl i64 %31, 32
  %32 = ashr exact i64 %sext.i.i, 32
  %.not32.i.i = icmp eq i64 %sext.i.i, 0
  %33 = icmp sgt i64 %32, -1
  %.not3334.i.i = xor i1 %spec.select.i, %33
  %or.cond.i.i = select i1 %.not32.i.i, i1 true, i1 %.not3334.i.i
  br i1 %or.cond.i.i, label %_ZN2cvL10f64_to_i32ENS_10softdoubleEhb.exit, label %34

34:                                               ; preds = %23, %_ZN2cvL25softfloat_shiftRightJam64Emm.exit.i
  %35 = select i1 %spec.select.i, i64 -2147483648, i64 2147483647
  br label %_ZN2cvL10f64_to_i32ENS_10softdoubleEhb.exit

_ZN2cvL10f64_to_i32ENS_10softdoubleEhb.exit:      ; preds = %23, %34
  %.0.i.i = phi i64 [ %35, %34 ], [ %32, %23 ]
  %36 = trunc nsw i64 %.0.i.i to i32
  ret i32 %36
}